; Function Attrs: nounwind sspstrong uwtable
define internal void @net_socket_cleanup(ptr noundef %nc) #0 {
entry:
  %fd = getelementptr inbounds nuw i8, ptr %nc, i64 380
  %0 = load i32, ptr %fd, align 4
  %cmp.not = icmp eq i32 %0, -1
  br i1 %cmp.not, label %if.end, label %if.then

if.then:                                          ; preds = %entry
  %read_poll.i = getelementptr inbounds nuw i8, ptr %nc, i64 70080
  store i8 0, ptr %read_poll.i, align 8
  %write_poll.i.i = getelementptr inbounds nuw i8, ptr %nc, i64 70081
  %1 = load i8, ptr %write_poll.i.i, align 1
  %tobool1.i.i = trunc i8 %1 to i1
  %cond2.i.i = select i1 %tobool1.i.i, ptr @net_socket_writable, ptr null
  tail call void @qemu_set_fd_handler(i32 noundef %0, ptr noundef null, ptr noundef %cond2.i.i, ptr noundef nonnull %nc) #8
  store i8 0, ptr %write_poll.i.i, align 1
  %2 = load i32, ptr %fd, align 4
  %3 = load i8, ptr %read_poll.i, align 8
  %tobool.i.i = trunc i8 %3 to i1
  br i1 %tobool.i.i, label %cond.true.i.i, label %net_socket_write_poll.exit

cond.true.i.i:                                    ; preds = %if.then
  %send_fn.i.i = getelementptr inbounds nuw i8, ptr %nc, i64 70072
  %4 = load ptr, ptr %send_fn.i.i, align 8
  br label %net_socket_write_poll.exit

net_socket_write_poll.exit:                       ; preds = %if.then, %cond.true.i.i
  %cond.i.i = phi ptr [ %4, %cond.true.i.i ], [ null, %if.then ]
  tail call void @qemu_set_fd_handler(i32 noundef %2, ptr noundef %cond.i.i, ptr noundef null, ptr noundef nonnull %nc) #8
  %5 = load i32, ptr %fd, align 4
  %call = tail call i32 @close(i32 noundef %5) #8
  store i32 -1, ptr %fd, align 4
  br label %if.end

if.end:                                           ; preds = %net_socket_write_poll.exit, %entry
  %listen_fd = getelementptr inbounds nuw i8, ptr %nc, i64 376
  %6 = load i32, ptr %listen_fd, align 8
  %cmp4.not = icmp eq i32 %6, -1
  br i1 %cmp4.not, label %if.end10, label %if.then5

if.then5:                                         ; preds = %if.end
  tail call void @qemu_set_fd_handler(i32 noundef %6, ptr noundef null, ptr noundef null, ptr noundef null) #8
  %7 = load i32, ptr %listen_fd, align 8
  %call8 = tail call i32 @close(i32 noundef %7) #8
  store i32 -1, ptr %listen_fd, align 8
  br label %if.end10

if.end10:                                         ; preds = %if.then5, %if.end
  ret void
}